target datalayout = "e-m:e-p270:32:32-p271:32:32-p272:64:64-i64:64-i128:128-f80:128-n8:16:32:64-S128"
target triple = "x86_64-pc-linux-gnu"

%"class.base::Time" = type { %"class.base::time_internal::TimeBase" }
%"class.base::time_internal::TimeBase" = type { i64 }
%"struct.base::Time::Exploded" = type { i32, i32, i32, i32, i32, i32, i32, i32 }

; Function Attrs: mustprogress nounwind uwtable
define linkonce_odr void @_ZN4base13time_internal8TimeBaseINS_4TimeEEC2El(ptr noundef nonnull align 8 dereferenceable(8) %0, i64 noundef %1) unnamed_addr #1 comdat align 2 {
  %3 = alloca ptr, align 8
  %4 = alloca i64, align 8
  store ptr %0, ptr %3, align 8, !tbaa !26
  store i64 %1, ptr %4, align 8, !tbaa !8
  %5 = load ptr, ptr %3, align 8
  %6 = getelementptr inbounds nuw %"class.base::time_internal::TimeBase", ptr %5, i32 0, i32 0
  %7 = load i64, ptr %4, align 8, !tbaa !8
  store i64 %7, ptr %6, align 8, !tbaa !29
  ret void
}

; Function Attrs: inlinehint mustprogress nounwind uwtable
define linkonce_odr void @_Z13ignore_resultIbEvRKT_(ptr noundef nonnull align 1 dereferenceable(1) %0) #6 comdat {
  %2 = alloca ptr, align 8
  store ptr %0, ptr %2, align 8, !tbaa !73
  ret void
}

; Function Attrs: mustprogress uwtable
define linkonce_odr noundef zeroext i1 @_ZN4base4Time17FromLocalExplodedERKNS0_8ExplodedEPS0_(ptr noundef nonnull align 4 dereferenceable(32) %0, ptr noundef %1) #0 comdat align 2 {
  %3 = alloca ptr, align 8
  %4 = alloca ptr, align 8
  store ptr %0, ptr %3, align 8, !tbaa !42
  store ptr %1, ptr %4, align 8, !tbaa !24
  %5 = load ptr, ptr %3, align 8, !tbaa !42
  %6 = load ptr, ptr %4, align 8, !tbaa !24
  %7 = call noundef zeroext i1 @_ZN4base4Time12FromExplodedEbRKNS0_8ExplodedEPS0_(i1 noundef zeroext true, ptr noundef nonnull align 4 dereferenceable(32) %5, ptr noundef %6)
  ret i1 %7
}

; Function Attrs: mustprogress uwtable
define linkonce_odr void @_ZN4base4TimeC2Ev(ptr noundef nonnull align 8 dereferenceable(8) %0) unnamed_addr #0 comdat align 2 {
  %2 = alloca ptr, align 8
  store ptr %0, ptr %2, align 8, !tbaa !24
  %3 = load ptr, ptr %2, align 8
  call void @_ZN4base13time_internal8TimeBaseINS_4TimeEEC2El(ptr noundef nonnull align 8 dereferenceable(8) %3, i64 noundef 0)
  ret void
}

; Function Attrs: mustprogress uwtable
define linkonce_odr i64 @_ZN4base4Time17FromLocalExplodedERKNS0_8ExplodedE(ptr noundef nonnull align 4 dereferenceable(32) %0) #0 comdat align 2 {
  %2 = alloca %"class.base::Time", align 8
  %3 = alloca ptr, align 8
  %4 = alloca i8, align 1
  store ptr %0, ptr %3, align 8, !tbaa !42
  call void @_ZN4base4TimeC2Ev(ptr noundef nonnull align 8 dereferenceable(8) %2)
  call void @llvm.lifetime.start.p0(i64 1, ptr %4) #12
  %5 = load ptr, ptr %3, align 8, !tbaa !42
  %6 = call noundef zeroext i1 @_ZN4base4Time17FromLocalExplodedERKNS0_8ExplodedEPS0_(ptr noundef nonnull align 4 dereferenceable(32) %5, ptr noundef %2)
  %7 = zext i1 %6 to i8
  store i8 %7, ptr %4, align 1, !tbaa !44
  call void @_Z13ignore_resultIbEvRKT_(ptr noundef nonnull align 1 dereferenceable(1) %4)
  call void @llvm.lifetime.end.p0(i64 1, ptr %4) #12
  %8 = getelementptr inbounds nuw %"class.base::Time", ptr %2, i32 0, i32 0
  %9 = getelementptr inbounds nuw %"class.base::time_internal::TimeBase", ptr %8, i32 0, i32 0
  %10 = load i64, ptr %9, align 8
  ret i64 %10
}

; Function Attrs: mustprogress uwtable
define linkonce_odr void @_ZNK4base4Time12LocalExplodeEPNS0_8ExplodedE(ptr noundef nonnull align 8 dereferenceable(8) %0, ptr noundef %1) #0 comdat align 2 {
  %3 = alloca ptr, align 8
  %4 = alloca ptr, align 8
  store ptr %0, ptr %3, align 8, !tbaa !24
  store ptr %1, ptr %4, align 8, !tbaa !42
  %5 = load ptr, ptr %3, align 8
  %6 = load ptr, ptr %4, align 8, !tbaa !42
  call void @_ZNK4base4Time7ExplodeEbPNS0_8ExplodedE(ptr noundef nonnull align 8 dereferenceable(8) %5, i1 noundef zeroext true, ptr noundef %6)
  ret void
}

; Function Attrs: mustprogress uwtable
define i64 @_ZNK4base4Time13LocalMidnightEv(ptr noundef nonnull align 8 dereferenceable(8) %0) #0 align 2 {
  %2 = alloca %"class.base::Time", align 8
  %3 = alloca ptr, align 8
  %4 = alloca %"struct.base::Time::Exploded", align 4
  store ptr %0, ptr %3, align 8, !tbaa !24
  %5 = load ptr, ptr %3, align 8
  call void @llvm.lifetime.start.p0(i64 32, ptr %4) #12
  call void @_ZNK4base4Time12LocalExplodeEPNS0_8ExplodedE(ptr noundef nonnull align 8 dereferenceable(8) %5, ptr noundef %4)
  %6 = getelementptr inbounds nuw %"struct.base::Time::Exploded", ptr %4, i32 0, i32 4
  store i32 0, ptr %6, align 4, !tbaa !36
  %7 = getelementptr inbounds nuw %"struct.base::Time::Exploded", ptr %4, i32 0, i32 5
  store i32 0, ptr %7, align 4, !tbaa !39
  %8 = getelementptr inbounds nuw %"struct.base::Time::Exploded", ptr %4, i32 0, i32 6
  store i32 0, ptr %8, align 4, !tbaa !40
  %9 = getelementptr inbounds nuw %"struct.base::Time::Exploded", ptr %4, i32 0, i32 7
  store i32 0, ptr %9, align 4, !tbaa !41
  %10 = call i64 @_ZN4base4Time17FromLocalExplodedERKNS0_8ExplodedE(ptr noundef nonnull align 4 dereferenceable(32) %4)
  %11 = getelementptr inbounds nuw %"class.base::Time", ptr %2, i32 0, i32 0
  %12 = getelementptr inbounds nuw %"class.base::time_internal::TimeBase", ptr %11, i32 0, i32 0
  store i64 %10, ptr %12, align 8
  call void @llvm.lifetime.end.p0(i64 32, ptr %4) #12
  %13 = getelementptr inbounds nuw %"class.base::Time", ptr %2, i32 0, i32 0
  %14 = getelementptr inbounds nuw %"class.base::time_internal::TimeBase", ptr %13, i32 0, i32 0
  %15 = load i64, ptr %14, align 8
  ret i64 %15
}