; Function Attrs: mustprogress uwtable
define i64 @_ZNK4base4Time13LocalMidnightEv(ptr noundef nonnull align 8 dereferenceable(8) %0) local_unnamed_addr #3 align 2 {
  %2 = alloca %"class.base::Time", align 8
  %3 = alloca %"struct.base::Time::Exploded", align 4
  call void @llvm.lifetime.start.p0(i64 32, ptr nonnull %3) #8
  call void @_ZNK4base4Time7ExplodeEbPNS0_8ExplodedE(ptr noundef nonnull align 8 dereferenceable(8) %0, i1 noundef zeroext true, ptr noundef nonnull %3)
  %4 = getelementptr inbounds nuw i8, ptr %3, i64 16
  call void @llvm.memset.p0.i64(ptr noundef nonnull align 4 dereferenceable(16) %4, i8 0, i64 16, i1 false)
  call void @llvm.lifetime.start.p0(i64 8, ptr nonnull %2)
  store i64 0, ptr %2, align 8, !tbaa !9
  %5 = call noundef zeroext i1 @_ZN4base4Time12FromExplodedEbRKNS0_8ExplodedEPS0_(i1 noundef zeroext true, ptr noundef nonnull align 4 dereferenceable(32) %3, ptr noundef nonnull %2)
  %6 = load i64, ptr %2, align 8
  call void @llvm.lifetime.end.p0(i64 8, ptr nonnull %2)
  call void @llvm.lifetime.end.p0(i64 32, ptr nonnull %3) #8
  ret i64 %6
}